target datalayout = "e-m:e-p270:32:32-p271:32:32-p272:64:64-i64:64-i128:128-f80:128-n8:16:32:64-S128"
target triple = "x86_64-pc-linux-gnu"

%"class.icu_77::UCharsTrie::Iterator" = type { ptr, ptr, ptr, i32, i32, i8, %"class.icu_77::UnicodeString", i32, i32, ptr }
%"class.icu_77::UnicodeString" = type { %"class.icu_77::Replaceable", %"union.icu_77::UnicodeString::StackBufferOrFields" }
%"class.icu_77::Replaceable" = type { %"class.icu_77::UObject" }
%"class.icu_77::UObject" = type { ptr }
%"union.icu_77::UnicodeString::StackBufferOrFields" = type { %struct.anon.0, [32 x i8] }
%struct.anon.0 = type { i16, i32, i32, ptr }
%struct.anon = type { i16, [27 x i16] }
%"class.icu_77::ConstChar16Ptr" = type { ptr }

@_ZTVN6icu_777UObjectE = available_externally unnamed_addr constant { [5 x ptr] } { [5 x ptr] [ptr null, ptr @_ZTIN6icu_777UObjectE, ptr @_ZN6icu_777UObjectD1Ev, ptr @_ZN6icu_777UObjectD0Ev, ptr @_ZNK6icu_777UObject17getDynamicClassIDEv] }, align 8

; Function Attrs: inlinehint mustprogress nounwind uwtable
define linkonce_odr void @_ZN6icu_777UObjectC2Ev(ptr noundef nonnull align 8 dereferenceable(8) %0) unnamed_addr #2 comdat align 2 {
  %2 = alloca ptr, align 8
  store ptr %0, ptr %2, align 8, !tbaa !57
  %3 = load ptr, ptr %2, align 8
  store ptr getelementptr inbounds inrange(-16, 24) ({ [5 x ptr] }, ptr @_ZTVN6icu_777UObjectE, i32 0, i32 0, i32 2), ptr %3, align 8, !tbaa !32
  ret void
}

; Function Attrs: inlinehint mustprogress nounwind uwtable
define linkonce_odr void @_ZN6icu_7711ReplaceableC2Ev(ptr noundef nonnull align 8 dereferenceable(8) %0) unnamed_addr #2 comdat align 2 {
  %2 = alloca ptr, align 8
  store ptr %0, ptr %2, align 8, !tbaa !55
  %3 = load ptr, ptr %2, align 8
  call void @_ZN6icu_777UObjectC2Ev(ptr noundef nonnull align 8 dereferenceable(8) %3) #7
  store ptr getelementptr inbounds inrange(-16, 88) ({ [13 x ptr] }, ptr @_ZTVN6icu_7711ReplaceableE, i32 0, i32 0, i32 2), ptr %3, align 8, !tbaa !32
  ret void
}

; Function Attrs: inlinehint mustprogress nounwind uwtable
define linkonce_odr noundef ptr @_ZNK6icu_7714ConstChar16Ptr3getEv(ptr noundef nonnull align 8 dereferenceable(8) %0) #2 comdat align 2 {
  %2 = alloca ptr, align 8
  store ptr %0, ptr %2, align 8, !tbaa !8
  %3 = load ptr, ptr %2, align 8
  %4 = getelementptr inbounds nuw %"class.icu_77::ConstChar16Ptr", ptr %3, i32 0, i32 0
  %5 = load ptr, ptr %4, align 8, !tbaa !42
  ret ptr %5
}

; Function Attrs: inlinehint mustprogress nounwind uwtable
define internal noundef signext i8 @_ZL9U_FAILURE10UErrorCode(i32 noundef %0) #2 {
  %2 = alloca i32, align 4
  store i32 %0, ptr %2, align 4, !tbaa !28
  %3 = load i32, ptr %2, align 4, !tbaa !28
  %4 = icmp sgt i32 %3, 0
  %5 = zext i1 %4 to i8
  ret i8 %5
}

; Function Attrs: inlinehint mustprogress uwtable
define linkonce_odr void @_ZN6icu_7713UnicodeStringC2Ev(ptr noundef nonnull align 8 dereferenceable(64) %0) unnamed_addr #1 comdat align 2 {
  %2 = alloca ptr, align 8
  store ptr %0, ptr %2, align 8, !tbaa !30
  %3 = load ptr, ptr %2, align 8
  call void @_ZN6icu_7711ReplaceableC2Ev(ptr noundef nonnull align 8 dereferenceable(8) %3)
  store ptr getelementptr inbounds inrange(-16, 88) ({ [13 x ptr] }, ptr @_ZTVN6icu_7713UnicodeStringE, i32 0, i32 0, i32 2), ptr %3, align 8, !tbaa !32
  %4 = getelementptr inbounds nuw %"class.icu_77::UnicodeString", ptr %3, i32 0, i32 1
  %5 = getelementptr inbounds nuw %struct.anon, ptr %4, i32 0, i32 0
  store i16 2, ptr %5, align 8, !tbaa !34
  ret void
}

; Function Attrs: inlinehint mustprogress uwtable
define linkonce_odr noundef ptr @_ZNK6icu_7714ConstChar16PtrcvPKDsEv(ptr noundef nonnull align 8 dereferenceable(8) %0) #1 comdat align 2 {
  %2 = alloca ptr, align 8
  store ptr %0, ptr %2, align 8, !tbaa !8
  %3 = load ptr, ptr %2, align 8
  %4 = call noundef ptr @_ZNK6icu_7714ConstChar16Ptr3getEv(ptr noundef nonnull align 8 dereferenceable(8) %3)
  ret ptr %4
}

; Function Attrs: mustprogress uwtable
define void @_ZN6icu_7710UCharsTrie8IteratorC2ENS_14ConstChar16PtrEiR10UErrorCode(ptr noundef nonnull align 8 dereferenceable(120) %0, ptr noundef %1, i32 noundef %2, ptr noundef nonnull align 4 dereferenceable(4) %3) unnamed_addr #0 align 2 personality ptr @__gxx_personality_v0 {
  %5 = alloca ptr, align 8
  %6 = alloca ptr, align 8
  %7 = alloca i32, align 4
  %8 = alloca ptr, align 8
  %9 = alloca ptr, align 8
  %10 = alloca i32, align 4
  %11 = alloca ptr, align 8
  %12 = alloca i1, align 1
  store ptr %0, ptr %5, align 8, !tbaa !3
  store ptr %1, ptr %6, align 8, !tbaa !8
  store i32 %2, ptr %7, align 4, !tbaa !10
  store ptr %3, ptr %8, align 8, !tbaa !12
  %13 = load ptr, ptr %5, align 8
  %14 = getelementptr inbounds nuw %"class.icu_77::UCharsTrie::Iterator", ptr %13, i32 0, i32 0
  %15 = call noundef ptr @_ZNK6icu_7714ConstChar16PtrcvPKDsEv(ptr noundef nonnull align 8 dereferenceable(8) %1)
  store ptr %15, ptr %14, align 8, !tbaa !13
  %16 = getelementptr inbounds nuw %"class.icu_77::UCharsTrie::Iterator", ptr %13, i32 0, i32 1
  %17 = getelementptr inbounds nuw %"class.icu_77::UCharsTrie::Iterator", ptr %13, i32 0, i32 0
  %18 = load ptr, ptr %17, align 8, !tbaa !13
  store ptr %18, ptr %16, align 8, !tbaa !20
  %19 = getelementptr inbounds nuw %"class.icu_77::UCharsTrie::Iterator", ptr %13, i32 0, i32 2
  %20 = getelementptr inbounds nuw %"class.icu_77::UCharsTrie::Iterator", ptr %13, i32 0, i32 0
  %21 = load ptr, ptr %20, align 8, !tbaa !13
  store ptr %21, ptr %19, align 8, !tbaa !21
  %22 = getelementptr inbounds nuw %"class.icu_77::UCharsTrie::Iterator", ptr %13, i32 0, i32 3
  store i32 -1, ptr %22, align 8, !tbaa !22
  %23 = getelementptr inbounds nuw %"class.icu_77::UCharsTrie::Iterator", ptr %13, i32 0, i32 4
  store i32 -1, ptr %23, align 4, !tbaa !23
  %24 = getelementptr inbounds nuw %"class.icu_77::UCharsTrie::Iterator", ptr %13, i32 0, i32 5
  store i8 0, ptr %24, align 8, !tbaa !24
  %25 = getelementptr inbounds nuw %"class.icu_77::UCharsTrie::Iterator", ptr %13, i32 0, i32 6
  call void @_ZN6icu_7713UnicodeStringC2Ev(ptr noundef nonnull align 8 dereferenceable(64) %25)
  %26 = getelementptr inbounds nuw %"class.icu_77::UCharsTrie::Iterator", ptr %13, i32 0, i32 7
  %27 = load i32, ptr %7, align 4, !tbaa !10
  store i32 %27, ptr %26, align 8, !tbaa !25
  %28 = getelementptr inbounds nuw %"class.icu_77::UCharsTrie::Iterator", ptr %13, i32 0, i32 8
  store i32 0, ptr %28, align 4, !tbaa !26
  %29 = getelementptr inbounds nuw %"class.icu_77::UCharsTrie::Iterator", ptr %13, i32 0, i32 9
  store ptr null, ptr %29, align 8, !tbaa !27
  %30 = load ptr, ptr %8, align 8, !tbaa !12
  %31 = load i32, ptr %30, align 4, !tbaa !28
  %32 = invoke noundef signext i8 @_ZL9U_FAILURE10UErrorCode(i32 noundef %31)
          to label %33 unwind label %36

33:                                               ; preds = %4
  %34 = icmp ne i8 %32, 0
  br i1 %34, label %35, label %40

35:                                               ; preds = %33
  br label %62

36:                                               ; preds = %4
  %37 = landingpad { ptr, i32 }
          cleanup
  %38 = extractvalue { ptr, i32 } %37, 0
  store ptr %38, ptr %9, align 8
  %39 = extractvalue { ptr, i32 } %37, 1
  store i32 %39, ptr %10, align 4
  br label %63

40:                                               ; preds = %33
  %41 = call noundef ptr @_ZN6icu_777UMemorynwEm(i64 noundef 32) #7
  %42 = icmp eq ptr %41, null
  store i1 false, ptr %12, align 1
  br i1 %42, label %46, label %43

43:                                               ; preds = %40
  store ptr %41, ptr %11, align 8
  store i1 true, ptr %12, align 1
  %44 = load ptr, ptr %8, align 8, !tbaa !12
  invoke void @_ZN6icu_779UVector32C1ER10UErrorCode(ptr noundef nonnull align 8 dereferenceable(32) %41, ptr noundef nonnull align 4 dereferenceable(4) %44)
          to label %45 unwind label %54

45:                                               ; preds = %43
  br label %46

46:                                               ; preds = %45, %40
  %47 = phi ptr [ %41, %45 ], [ null, %40 ]
  %48 = getelementptr inbounds nuw %"class.icu_77::UCharsTrie::Iterator", ptr %13, i32 0, i32 9
  store ptr %47, ptr %48, align 8, !tbaa !27
  %49 = getelementptr inbounds nuw %"class.icu_77::UCharsTrie::Iterator", ptr %13, i32 0, i32 9
  %50 = load ptr, ptr %49, align 8, !tbaa !27
  %51 = icmp eq ptr %50, null
  br i1 %51, label %52, label %62

52:                                               ; preds = %46
  %53 = load ptr, ptr %8, align 8, !tbaa !12
  store i32 7, ptr %53, align 4, !tbaa !28
  br label %62

54:                                               ; preds = %43
  %55 = landingpad { ptr, i32 }
          cleanup
  %56 = extractvalue { ptr, i32 } %55, 0
  store ptr %56, ptr %9, align 8
  %57 = extractvalue { ptr, i32 } %55, 1
  store i32 %57, ptr %10, align 4
  %58 = load i1, ptr %12, align 1
  br i1 %58, label %59, label %61

59:                                               ; preds = %54
  %60 = load ptr, ptr %11, align 8
  call void @_ZN6icu_777UMemorydlEPv(ptr noundef %60) #7
  br label %61

61:                                               ; preds = %59, %54
  br label %63

62:                                               ; preds = %35, %52, %46
  ret void

63:                                               ; preds = %61, %36
  call void @_ZN6icu_7713UnicodeStringD1Ev(ptr noundef nonnull align 8 dereferenceable(64) %25) #7
  br label %64

64:                                               ; preds = %63
  %65 = load ptr, ptr %9, align 8
  %66 = load i32, ptr %10, align 4
  %67 = insertvalue { ptr, i32 } poison, ptr %65, 0
  %68 = insertvalue { ptr, i32 } %67, i32 %66, 1
  resume { ptr, i32 } %68
}