; Function Attrs: mustprogress uwtable
define void @_ZN6icu_7710UCharsTrie8IteratorC2ENS_14ConstChar16PtrEiR10UErrorCode(ptr noundef nonnull align 8 dereferenceable(120) initializes((0, 33), (40, 50), (104, 120)) %0, ptr noundef readonly captures(none) %1, i32 noundef %2, ptr noundef nonnull align 4 dereferenceable(4) %3) unnamed_addr #0 align 2 personality ptr @__gxx_personality_v0 {
  %5 = load ptr, ptr %1, align 8, !tbaa !3
  store ptr %5, ptr %0, align 8, !tbaa !9
  %6 = getelementptr inbounds nuw i8, ptr %0, i64 8
  store ptr %5, ptr %6, align 8, !tbaa !16
  %7 = getelementptr inbounds nuw i8, ptr %0, i64 16
  store ptr %5, ptr %7, align 8, !tbaa !17
  %8 = getelementptr inbounds nuw i8, ptr %0, i64 24
  store i32 -1, ptr %8, align 8, !tbaa !18
  %9 = getelementptr inbounds nuw i8, ptr %0, i64 28
  store i32 -1, ptr %9, align 4, !tbaa !19
  %10 = getelementptr inbounds nuw i8, ptr %0, i64 32
  store i8 0, ptr %10, align 8, !tbaa !20
  %11 = getelementptr inbounds nuw i8, ptr %0, i64 40
  store ptr getelementptr inbounds nuw inrange(-16, 88) (i8, ptr @_ZTVN6icu_7713UnicodeStringE, i64 16), ptr %11, align 8, !tbaa !21
  %12 = getelementptr inbounds nuw i8, ptr %0, i64 48
  store i16 2, ptr %12, align 8, !tbaa !23
  %13 = getelementptr inbounds nuw i8, ptr %0, i64 104
  store i32 %2, ptr %13, align 8, !tbaa !24
  %14 = getelementptr inbounds nuw i8, ptr %0, i64 108
  store i32 0, ptr %14, align 4, !tbaa !25
  %15 = getelementptr inbounds nuw i8, ptr %0, i64 112
  store ptr null, ptr %15, align 8, !tbaa !26
  %16 = load i32, ptr %3, align 4, !tbaa !27
  %17 = icmp slt i32 %16, 1
  br i1 %17, label %18, label %26

18:                                               ; preds = %4
  %19 = tail call noundef ptr @_ZN6icu_777UMemorynwEm(i64 noundef 32) #6
  %20 = icmp eq ptr %19, null
  br i1 %20, label %23, label %21

21:                                               ; preds = %18
  invoke void @_ZN6icu_779UVector32C1ER10UErrorCode(ptr noundef nonnull align 8 dereferenceable(32) %19, ptr noundef nonnull align 4 dereferenceable(4) %3)
          to label %22 unwind label %24

22:                                               ; preds = %21
  store ptr %19, ptr %15, align 8, !tbaa !26
  br label %26

23:                                               ; preds = %18
  store ptr null, ptr %15, align 8, !tbaa !26
  store i32 7, ptr %3, align 4, !tbaa !27
  br label %26

24:                                               ; preds = %21
  %25 = landingpad { ptr, i32 }
          cleanup
  tail call void @_ZN6icu_777UMemorydlEPv(ptr noundef nonnull %19) #6
  tail call void @_ZN6icu_7713UnicodeStringD1Ev(ptr noundef nonnull align 8 dereferenceable(64) %11) #6
  resume { ptr, i32 } %25

26:                                               ; preds = %22, %4, %23
  ret void
}